target datalayout = "e-m:e-p270:32:32-p271:32:32-p272:64:64-i64:64-i128:128-f80:128-n8:16:32:64-S128"
target triple = "x86_64-unknown-linux-gnu"

@qemu_fdt_alloc_phandle.phandle = internal global i32 0, align 4
@current_machine = external global ptr, align 8

; Function Attrs: nounwind sspstrong uwtable
define dso_local i32 @qemu_fdt_alloc_phandle(ptr noundef %fdt) #0 {
entry:
  %fdt.addr = alloca ptr, align 8
  store ptr %fdt, ptr %fdt.addr, align 8
  %0 = load i32, ptr @qemu_fdt_alloc_phandle.phandle, align 4
  %tobool = icmp ne i32 %0, 0
  br i1 %tobool, label %if.end, label %if.then

if.then:                                          ; preds = %entry
  %1 = load ptr, ptr @current_machine, align 8
  %call = call i32 @machine_phandle_start(ptr noundef %1)
  store i32 %call, ptr @qemu_fdt_alloc_phandle.phandle, align 4
  br label %if.end

if.end:                                           ; preds = %if.then, %entry
  %2 = load i32, ptr @qemu_fdt_alloc_phandle.phandle, align 4
  %tobool1 = icmp ne i32 %2, 0
  br i1 %tobool1, label %if.end3, label %if.then2

if.then2:                                         ; preds = %if.end
  store i32 32768, ptr @qemu_fdt_alloc_phandle.phandle, align 4
  br label %if.end3

if.end3:                                          ; preds = %if.then2, %if.end
  %3 = load i32, ptr @qemu_fdt_alloc_phandle.phandle, align 4
  %inc = add i32 %3, 1
  store i32 %inc, ptr @qemu_fdt_alloc_phandle.phandle, align 4
  ret i32 %3
}