; Function Attrs: nounwind sspstrong uwtable
define dso_local i32 @qemu_fdt_alloc_phandle(ptr noundef readnone captures(none) %fdt) local_unnamed_addr #0 {
entry:
  %0 = load i32, ptr @qemu_fdt_alloc_phandle.phandle, align 4
  %tobool.not = icmp eq i32 %0, 0
  br i1 %tobool.not, label %if.end, label %if.end3

if.end:                                           ; preds = %entry
  %1 = load ptr, ptr @current_machine, align 8
  %call = tail call i32 @machine_phandle_start(ptr noundef %1) #12
  %tobool1.not = icmp eq i32 %call, 0
  %spec.store.select = select i1 %tobool1.not, i32 32768, i32 %call
  br label %if.end3

if.end3:                                          ; preds = %if.end, %entry
  %2 = phi i32 [ %spec.store.select, %if.end ], [ %0, %entry ]
  %inc = add i32 %2, 1
  store i32 %inc, ptr @qemu_fdt_alloc_phandle.phandle, align 4
  ret i32 %2
}